; Function Attrs: nounwind sspstrong uwtable
define internal void @virtio_pci_exit(ptr noundef %0) #0 {
  %2 = tail call ptr @object_dynamic_cast_assert(ptr noundef %0, ptr noundef nonnull @.str, ptr noundef nonnull @.str.15, i32 noundef 107, ptr noundef nonnull @__func__.VIRTIO_PCI) #15
  %3 = tail call ptr @object_dynamic_cast_assert(ptr noundef %0, ptr noundef nonnull @.str.10, ptr noundef nonnull @.str.11, i32 noundef 77, ptr noundef nonnull @__func__.DEVICE) #15
  %4 = tail call ptr @qdev_get_parent_bus(ptr noundef %3) #15
  %5 = tail call ptr @object_dynamic_cast_assert(ptr noundef %4, ptr noundef nonnull @.str.94, ptr noundef nonnull @.str.95, i32 noundef 274, ptr noundef nonnull @__func__.PCI_BUS) #15
  %6 = tail call zeroext i1 @pci_bus_is_express(ptr noundef %5) #15
  br i1 %6, label %7, label %13

7:                                                ; preds = %1
  %8 = tail call ptr @object_dynamic_cast_assert(ptr noundef %0, ptr noundef nonnull @.str.10, ptr noundef nonnull @.str.11, i32 noundef 77, ptr noundef nonnull @__func__.DEVICE) #15
  %9 = tail call ptr @qdev_get_parent_bus(ptr noundef %8) #15
  %10 = tail call ptr @object_dynamic_cast_assert(ptr noundef %9, ptr noundef nonnull @.str.94, ptr noundef nonnull @.str.95, i32 noundef 274, ptr noundef nonnull @__func__.PCI_BUS) #15
  %11 = getelementptr i8, ptr %10, i64 120
  %.val14 = load i32, ptr %11, align 8
  %12 = and i32 %.val14, 1
  %.not15 = icmp ne i32 %12, 0
  br label %13

13:                                               ; preds = %7, %1
  %.not13 = phi i1 [ true, %1 ], [ %.not15, %7 ]
  %14 = getelementptr inbounds nuw i8, ptr %2, i64 5348
  %15 = load i32, ptr %14, align 4
  %16 = and i32 %15, 8
  %.not = icmp eq i32 %16, 0
  tail call void @msix_uninit_exclusive_bar(ptr noundef %0) #15
  %17 = load i32, ptr %14, align 4
  %18 = and i32 %17, 2048
  %.not11 = icmp eq i32 %18, 0
  %brmerge = select i1 %.not11, i1 true, i1 %.not13
  br i1 %brmerge, label %23, label %19

19:                                               ; preds = %13
  %20 = getelementptr i8, ptr %0, i64 1324
  %.val = load i32, ptr %20, align 4
  %21 = and i32 %.val, 4
  %.not12 = icmp eq i32 %21, 0
  br i1 %.not12, label %23, label %22

22:                                               ; preds = %19
  tail call void @pcie_aer_exit(ptr noundef nonnull %0) #15
  br label %23

23:                                               ; preds = %13, %22, %19
  %24 = getelementptr inbounds nuw i8, ptr %2, i64 5008
  tail call void @address_space_destroy(ptr noundef nonnull %24) #15
  br i1 %.not, label %27, label %25

25:                                               ; preds = %23
  %26 = getelementptr inbounds nuw i8, ptr %2, i64 5168
  tail call void @address_space_destroy(ptr noundef nonnull %26) #15
  br label %27

27:                                               ; preds = %25, %23
  ret void
}